target datalayout = "e-m:e-p270:32:32-p271:32:32-p272:64:64-i64:64-i128:128-f80:128-n8:16:32:64-S128"
target triple = "x86_64-unknown-linux-gnu"

%struct.BackupPerf = type { i8, i8, i8, i64, i8, i64 }

@.str.192 = private unnamed_addr constant [15 x i8] c"use-copy-range\00", align 1
@.str.193 = private unnamed_addr constant [12 x i8] c"max-workers\00", align 1
@.str.194 = private unnamed_addr constant [10 x i8] c"max-chunk\00", align 1

; Function Attrs: nounwind sspstrong uwtable
define dso_local zeroext i1 @visit_type_BackupPerf_members(ptr noundef %v, ptr noundef %obj, ptr noundef %errp) #0 {
entry:
  %retval = alloca i1, align 1
  %v.addr = alloca ptr, align 8
  %obj.addr = alloca ptr, align 8
  %errp.addr = alloca ptr, align 8
  store ptr %v, ptr %v.addr, align 8
  store ptr %obj, ptr %obj.addr, align 8
  store ptr %errp, ptr %errp.addr, align 8
  %0 = load ptr, ptr %v.addr, align 8
  %1 = load ptr, ptr %obj.addr, align 8
  %has_use_copy_range = getelementptr inbounds %struct.BackupPerf, ptr %1, i32 0, i32 0
  %call = call zeroext i1 @visit_optional(ptr noundef %0, ptr noundef @.str.192, ptr noundef %has_use_copy_range)
  br i1 %call, label %if.then, label %if.end3

if.then:                                          ; preds = %entry
  %2 = load ptr, ptr %v.addr, align 8
  %3 = load ptr, ptr %obj.addr, align 8
  %use_copy_range = getelementptr inbounds %struct.BackupPerf, ptr %3, i32 0, i32 1
  %4 = load ptr, ptr %errp.addr, align 8
  %call1 = call zeroext i1 @visit_type_bool(ptr noundef %2, ptr noundef @.str.192, ptr noundef %use_copy_range, ptr noundef %4)
  br i1 %call1, label %if.end, label %if.then2

if.then2:                                         ; preds = %if.then
  store i1 false, ptr %retval, align 1
  br label %return

if.end:                                           ; preds = %if.then
  br label %if.end3

if.end3:                                          ; preds = %if.end, %entry
  %5 = load ptr, ptr %v.addr, align 8
  %6 = load ptr, ptr %obj.addr, align 8
  %has_max_workers = getelementptr inbounds %struct.BackupPerf, ptr %6, i32 0, i32 2
  %call4 = call zeroext i1 @visit_optional(ptr noundef %5, ptr noundef @.str.193, ptr noundef %has_max_workers)
  br i1 %call4, label %if.then5, label %if.end9

if.then5:                                         ; preds = %if.end3
  %7 = load ptr, ptr %v.addr, align 8
  %8 = load ptr, ptr %obj.addr, align 8
  %max_workers = getelementptr inbounds %struct.BackupPerf, ptr %8, i32 0, i32 3
  %9 = load ptr, ptr %errp.addr, align 8
  %call6 = call zeroext i1 @visit_type_int(ptr noundef %7, ptr noundef @.str.193, ptr noundef %max_workers, ptr noundef %9)
  br i1 %call6, label %if.end8, label %if.then7

if.then7:                                         ; preds = %if.then5
  store i1 false, ptr %retval, align 1
  br label %return

if.end8:                                          ; preds = %if.then5
  br label %if.end9

if.end9:                                          ; preds = %if.end8, %if.end3
  %10 = load ptr, ptr %v.addr, align 8
  %11 = load ptr, ptr %obj.addr, align 8
  %has_max_chunk = getelementptr inbounds %struct.BackupPerf, ptr %11, i32 0, i32 4
  %call10 = call zeroext i1 @visit_optional(ptr noundef %10, ptr noundef @.str.194, ptr noundef %has_max_chunk)
  br i1 %call10, label %if.then11, label %if.end15

if.then11:                                        ; preds = %if.end9
  %12 = load ptr, ptr %v.addr, align 8
  %13 = load ptr, ptr %obj.addr, align 8
  %max_chunk = getelementptr inbounds %struct.BackupPerf, ptr %13, i32 0, i32 5
  %14 = load ptr, ptr %errp.addr, align 8
  %call12 = call zeroext i1 @visit_type_int64(ptr noundef %12, ptr noundef @.str.194, ptr noundef %max_chunk, ptr noundef %14)
  br i1 %call12, label %if.end14, label %if.then13

if.then13:                                        ; preds = %if.then11
  store i1 false, ptr %retval, align 1
  br label %return

if.end14:                                         ; preds = %if.then11
  br label %if.end15

if.end15:                                         ; preds = %if.end14, %if.end9
  store i1 true, ptr %retval, align 1
  br label %return

return:                                           ; preds = %if.end15, %if.then13, %if.then7, %if.then2
  %15 = load i1, ptr %retval, align 1
  ret i1 %15
}