; Function Attrs: nounwind sspstrong uwtable
define dso_local noundef zeroext i1 @visit_type_BackupPerf_members(ptr noundef %v, ptr noundef %obj, ptr noundef %errp) local_unnamed_addr #0 {
entry:
  %call = tail call zeroext i1 @visit_optional(ptr noundef %v, ptr noundef nonnull @.str.192, ptr noundef %obj) #5
  br i1 %call, label %if.then, label %if.end3

if.then:                                          ; preds = %entry
  %use_copy_range = getelementptr inbounds nuw i8, ptr %obj, i64 1
  %call1 = tail call zeroext i1 @visit_type_bool(ptr noundef %v, ptr noundef nonnull @.str.192, ptr noundef nonnull %use_copy_range, ptr noundef %errp) #5
  br i1 %call1, label %if.end3, label %return

if.end3:                                          ; preds = %if.then, %entry
  %has_max_workers = getelementptr inbounds nuw i8, ptr %obj, i64 2
  %call4 = tail call zeroext i1 @visit_optional(ptr noundef %v, ptr noundef nonnull @.str.193, ptr noundef nonnull %has_max_workers) #5
  br i1 %call4, label %if.then5, label %if.end9

if.then5:                                         ; preds = %if.end3
  %max_workers = getelementptr inbounds nuw i8, ptr %obj, i64 8
  %call6 = tail call zeroext i1 @visit_type_int(ptr noundef %v, ptr noundef nonnull @.str.193, ptr noundef nonnull %max_workers, ptr noundef %errp) #5
  br i1 %call6, label %if.end9, label %return

if.end9:                                          ; preds = %if.then5, %if.end3
  %has_max_chunk = getelementptr inbounds nuw i8, ptr %obj, i64 16
  %call10 = tail call zeroext i1 @visit_optional(ptr noundef %v, ptr noundef nonnull @.str.194, ptr noundef nonnull %has_max_chunk) #5
  br i1 %call10, label %if.then11, label %if.end15

if.then11:                                        ; preds = %if.end9
  %max_chunk = getelementptr inbounds nuw i8, ptr %obj, i64 24
  %call12 = tail call zeroext i1 @visit_type_int64(ptr noundef %v, ptr noundef nonnull @.str.194, ptr noundef nonnull %max_chunk, ptr noundef %errp) #5
  br i1 %call12, label %if.end15, label %return

if.end15:                                         ; preds = %if.then11, %if.end9
  br label %return

return:                                           ; preds = %if.then11, %if.then5, %if.then, %if.end15
  %retval.0 = phi i1 [ true, %if.end15 ], [ false, %if.then ], [ false, %if.then5 ], [ false, %if.then11 ]
  ret i1 %retval.0
}